; Function Attrs: mustprogress uwtable
define void @_ZN5faiss8IndexIVF15make_direct_mapEb(ptr noundef nonnull align 8 dereferenceable(265) %0, i1 noundef zeroext %1) local_unnamed_addr #0 align 2 {
  %3 = getelementptr inbounds nuw i8, ptr %0, i64 176
  %4 = getelementptr inbounds nuw i8, ptr %0, i64 144
  %5 = load ptr, ptr %4, align 8, !tbaa !97
  %6 = getelementptr inbounds nuw i8, ptr %0, i64 16
  %7 = load i64, ptr %6, align 8, !tbaa !98
  %. = zext i1 %1 to i32
  tail call void @_ZN5faiss9DirectMap8set_typeENS0_4TypeEPKNS_13InvertedListsEm(ptr noundef nonnull align 8 dereferenceable(88) %3, i32 noundef %., ptr noundef %5, i64 noundef %7)
  ret void
}